target datalayout = "e-m:e-p270:32:32-p271:32:32-p272:64:64-i64:64-i128:128-f80:128-n8:16:32:64-S128"
target triple = "x86_64-pc-linux-gnu"

%struct.opj_jp2 = type { ptr, ptr, ptr, i32, i32, i32, i32, i32, i32, i32, i32, i32, i32, i32, i32, i32, i32, ptr, ptr, i64, i64, i32, i32, i32, %struct.opj_jp2_color, i32, i8, i8 }
%struct.opj_jp2_color = type { ptr, i32, ptr, ptr, i8 }
%struct.opj_jp2_comps = type { i32, i32, i32 }

@.str.66 = private unnamed_addr constant [114 x i8] c"A BPCC header box is available although BPC given by the IHDR box (%d) indicate components bit depth is constant\0A\00", align 1
@.str.67 = private unnamed_addr constant [32 x i8] c"Bad BPCC header box (bad size)\0A\00", align 1

; Function Attrs: nounwind uwtable
define internal i32 @opj_jp2_read_bpcc(ptr noundef %0, ptr noundef %1, i32 noundef %2, ptr noundef %3) #0 {
  %5 = alloca i32, align 4
  %6 = alloca ptr, align 8
  %7 = alloca ptr, align 8
  %8 = alloca i32, align 4
  %9 = alloca ptr, align 8
  %10 = alloca i32, align 4
  %11 = alloca i32, align 4
  store ptr %0, ptr %6, align 8, !tbaa !3
  store ptr %1, ptr %7, align 8, !tbaa !106
  store i32 %2, ptr %8, align 4, !tbaa !39
  store ptr %3, ptr %9, align 8, !tbaa !12
  call void @llvm.lifetime.start.p0(i64 4, ptr %10) #5
  %12 = load ptr, ptr %6, align 8, !tbaa !3
  %13 = getelementptr inbounds nuw %struct.opj_jp2, ptr %12, i32 0, i32 6
  %14 = load i32, ptr %13, align 4, !tbaa !61
  %15 = icmp ne i32 %14, 255
  br i1 %15, label %16, label %22

16:                                               ; preds = %4
  %17 = load ptr, ptr %9, align 8, !tbaa !12
  %18 = load ptr, ptr %6, align 8, !tbaa !3
  %19 = getelementptr inbounds nuw %struct.opj_jp2, ptr %18, i32 0, i32 6
  %20 = load i32, ptr %19, align 4, !tbaa !61
  %21 = call i32 (ptr, i32, ptr, ...) @opj_event_msg(ptr noundef %17, i32 noundef 2, ptr noundef @.str.66, i32 noundef %20)
  br label %22

22:                                               ; preds = %16, %4
  %23 = load i32, ptr %8, align 4, !tbaa !39
  %24 = load ptr, ptr %6, align 8, !tbaa !3
  %25 = getelementptr inbounds nuw %struct.opj_jp2, ptr %24, i32 0, i32 5
  %26 = load i32, ptr %25, align 8, !tbaa !49
  %27 = icmp ne i32 %23, %26
  br i1 %27, label %28, label %31

28:                                               ; preds = %22
  %29 = load ptr, ptr %9, align 8, !tbaa !12
  %30 = call i32 (ptr, i32, ptr, ...) @opj_event_msg(ptr noundef %29, i32 noundef 1, ptr noundef @.str.67)
  store i32 0, ptr %5, align 4
  store i32 1, ptr %11, align 4
  br label %53

31:                                               ; preds = %22
  store i32 0, ptr %10, align 4, !tbaa !39
  br label %32

32:                                               ; preds = %49, %31
  %33 = load i32, ptr %10, align 4, !tbaa !39
  %34 = load ptr, ptr %6, align 8, !tbaa !3
  %35 = getelementptr inbounds nuw %struct.opj_jp2, ptr %34, i32 0, i32 5
  %36 = load i32, ptr %35, align 8, !tbaa !49
  %37 = icmp ult i32 %33, %36
  br i1 %37, label %38, label %52

38:                                               ; preds = %32
  %39 = load ptr, ptr %7, align 8, !tbaa !106
  %40 = load ptr, ptr %6, align 8, !tbaa !3
  %41 = getelementptr inbounds nuw %struct.opj_jp2, ptr %40, i32 0, i32 18
  %42 = load ptr, ptr %41, align 8, !tbaa !50
  %43 = load i32, ptr %10, align 4, !tbaa !39
  %44 = zext i32 %43 to i64
  %45 = getelementptr inbounds nuw %struct.opj_jp2_comps, ptr %42, i64 %44
  %46 = getelementptr inbounds nuw %struct.opj_jp2_comps, ptr %45, i32 0, i32 2
  call void @opj_read_bytes_LE(ptr noundef %39, ptr noundef %46, i32 noundef 1)
  %47 = load ptr, ptr %7, align 8, !tbaa !106
  %48 = getelementptr inbounds nuw i8, ptr %47, i32 1
  store ptr %48, ptr %7, align 8, !tbaa !106
  br label %49

49:                                               ; preds = %38
  %50 = load i32, ptr %10, align 4, !tbaa !39
  %51 = add i32 %50, 1
  store i32 %51, ptr %10, align 4, !tbaa !39
  br label %32, !llvm.loop !178

52:                                               ; preds = %32
  store i32 1, ptr %5, align 4
  store i32 1, ptr %11, align 4
  br label %53

53:                                               ; preds = %52, %28
  call void @llvm.lifetime.end.p0(i64 4, ptr %10) #5
  %54 = load i32, ptr %5, align 4
  ret i32 %54
}