; Function Attrs: nounwind uwtable
define internal range(i32 0, 2) i32 @opj_jp2_read_bpcc(ptr noundef readonly captures(none) %0, ptr noundef %1, i32 noundef %2, ptr noundef %3) #0 {
  %5 = getelementptr inbounds nuw i8, ptr %0, i64 36
  %6 = load i32, ptr %5, align 4, !tbaa !90
  %.not = icmp eq i32 %6, 255
  br i1 %.not, label %9, label %7

7:                                                ; preds = %4
  %8 = tail call i32 (ptr, i32, ptr, ...) @opj_event_msg(ptr noundef %3, i32 noundef 2, ptr noundef nonnull @.str.66, i32 noundef %6) #6
  br label %9

9:                                                ; preds = %7, %4
  %10 = getelementptr inbounds nuw i8, ptr %0, i64 32
  %11 = load i32, ptr %10, align 8, !tbaa !82
  %.not16 = icmp eq i32 %2, %11
  br i1 %.not16, label %.preheader, label %13

.preheader:                                       ; preds = %9
  %.not19 = icmp eq i32 %2, 0
  br i1 %.not19, label %.loopexit, label %.lr.ph

.lr.ph:                                           ; preds = %.preheader
  %12 = getelementptr inbounds nuw i8, ptr %0, i64 88
  br label %15

13:                                               ; preds = %9
  %14 = tail call i32 (ptr, i32, ptr, ...) @opj_event_msg(ptr noundef %3, i32 noundef 1, ptr noundef nonnull @.str.67) #6
  br label %.loopexit

15:                                               ; preds = %.lr.ph, %15
  %indvars.iv = phi i64 [ 0, %.lr.ph ], [ %indvars.iv.next, %15 ]
  %.01417 = phi ptr [ %1, %.lr.ph ], [ %18, %15 ]
  %16 = load ptr, ptr %12, align 8, !tbaa !83
  %17 = getelementptr inbounds nuw %struct.opj_jp2_comps, ptr %16, i64 %indvars.iv, i32 2
  tail call void @opj_read_bytes_LE(ptr noundef %.01417, ptr noundef nonnull %17, i32 noundef 1) #6
  %18 = getelementptr inbounds nuw i8, ptr %.01417, i64 1
  %indvars.iv.next = add nuw nsw i64 %indvars.iv, 1
  %19 = load i32, ptr %10, align 8, !tbaa !82
  %20 = zext i32 %19 to i64
  %21 = icmp samesign ult i64 %indvars.iv.next, %20
  br i1 %21, label %15, label %.loopexit, !llvm.loop !145

.loopexit:                                        ; preds = %15, %.preheader, %13
  %.013 = phi i32 [ 0, %13 ], [ 1, %.preheader ], [ 1, %15 ]
  ret i32 %.013
}